; Function Attrs: mustprogress uwtable
define dso_local void @_Z12lua_setfieldP9lua_StateiPKc(ptr noundef %0, i32 noundef %1, ptr noundef %2) local_unnamed_addr #3 {
  %4 = alloca %struct.lua_TValue, align 8
  %5 = icmp sgt i32 %1, 0
  br i1 %5, label %6, label %14

6:                                                ; preds = %3
  %7 = getelementptr inbounds nuw i8, ptr %0, i64 16
  %8 = load ptr, ptr %7, align 8, !tbaa !4
  %9 = zext nneg i32 %1 to i64
  %10 = getelementptr %struct.lua_TValue, ptr %8, i64 %9
  %11 = getelementptr i8, ptr %10, i64 -16
  %12 = getelementptr inbounds nuw i8, ptr %0, i64 8
  %13 = load ptr, ptr %12, align 8, !tbaa !19
  %.not.i = icmp ult ptr %11, %13
  %.luaO_nilobject_.i = select i1 %.not.i, ptr %11, ptr @luaO_nilobject_
  br label %_ZL10index2addrP9lua_Statei.exit

14:                                               ; preds = %3
  %15 = icmp sgt i32 %1, -10000
  br i1 %15, label %16, label %21

16:                                               ; preds = %14
  %17 = getelementptr inbounds nuw i8, ptr %0, i64 8
  %18 = load ptr, ptr %17, align 8, !tbaa !19
  %19 = sext i32 %1 to i64
  %20 = getelementptr inbounds %struct.lua_TValue, ptr %18, i64 %19
  br label %_ZL10index2addrP9lua_Statei.exit

21:                                               ; preds = %14
  %22 = tail call fastcc noundef ptr @_ZL11pseudo2addrP9lua_Statei(ptr noundef %0, i32 noundef %1)
  br label %_ZL10index2addrP9lua_Statei.exit

_ZL10index2addrP9lua_Statei.exit:                 ; preds = %6, %16, %21
  %.1.i = phi ptr [ %.luaO_nilobject_.i, %6 ], [ %20, %16 ], [ %22, %21 ]
  call void @llvm.lifetime.start.p0(i64 16, ptr nonnull %4) #19
  %23 = tail call i64 @strlen(ptr noundef nonnull dereferenceable(1) %2) #20
  %24 = tail call noundef ptr @_Z12luaS_newlstrP9lua_StatePKcm(ptr noundef %0, ptr noundef nonnull %2, i64 noundef %23)
  store ptr %24, ptr %4, align 8, !tbaa !21
  %25 = getelementptr inbounds nuw i8, ptr %4, i64 12
  store i32 5, ptr %25, align 4, !tbaa !47
  %26 = getelementptr inbounds nuw i8, ptr %0, i64 8
  %27 = load ptr, ptr %26, align 8, !tbaa !19
  %28 = getelementptr inbounds i8, ptr %27, i64 -16
  call void @_Z13luaV_settableP9lua_StatePK10lua_TValuePS1_S4_(ptr noundef %0, ptr noundef %.1.i, ptr noundef nonnull %4, ptr noundef nonnull %28)
  %29 = load ptr, ptr %26, align 8, !tbaa !19
  %30 = getelementptr inbounds i8, ptr %29, i64 -16
  store ptr %30, ptr %26, align 8, !tbaa !19
  call void @llvm.lifetime.end.p0(i64 16, ptr nonnull %4) #19
  ret void
}